; Function Attrs: mustprogress uwtable
define void @_ZN10open_spiel10algorithms17MakeInfostateTreeERKSt6vectorIPKNS_5StateESaIS4_EERKS1_IdSaIdEESt10shared_ptrINS_8ObserverEEii(ptr dead_on_unwind noalias writable sret(%"class.std::shared_ptr.76") align 8 %0, ptr noundef nonnull align 8 dereferenceable(24) %1, ptr noundef nonnull align 8 dereferenceable(24) %2, ptr noundef readonly captures(none) %3, i32 noundef %4, i32 noundef %5) local_unnamed_addr #3 personality ptr @__gxx_personality_v0 {
  %7 = alloca %"class.std::shared_ptr", align 8
  %8 = tail call noalias noundef nonnull dereferenceable(112) ptr @_Znwm(i64 noundef 112) #24
  %9 = load ptr, ptr %3, align 8
  store ptr %9, ptr %7, align 8
  %10 = getelementptr inbounds nuw i8, ptr %7, i64 8
  %11 = getelementptr inbounds nuw i8, ptr %3, i64 8
  %12 = load ptr, ptr %11, align 8
  store ptr %12, ptr %10, align 8
  %.not.i.i.i = icmp eq ptr %12, null
  br i1 %.not.i.i.i, label %_ZNSt10shared_ptrIN10open_spiel8ObserverEEC2ERKS2_.exit, label %13

13:                                               ; preds = %6
  %14 = getelementptr inbounds nuw i8, ptr %12, i64 8
  %15 = load i8, ptr @__libc_single_threaded, align 1
  %.not.i.i.i.i = icmp eq i8 %15, 0
  br i1 %.not.i.i.i.i, label %19, label %16

16:                                               ; preds = %13
  %17 = load i32, ptr %14, align 4
  %18 = add nsw i32 %17, 1
  store i32 %18, ptr %14, align 4
  br label %_ZNSt10shared_ptrIN10open_spiel8ObserverEEC2ERKS2_.exit

19:                                               ; preds = %13
  %20 = atomicrmw volatile add ptr %14, i32 1 acq_rel, align 4
  br label %_ZNSt10shared_ptrIN10open_spiel8ObserverEEC2ERKS2_.exit

_ZNSt10shared_ptrIN10open_spiel8ObserverEEC2ERKS2_.exit: ; preds = %6, %16, %19
  invoke void @_ZN10open_spiel10algorithms13InfostateTreeC1ERKSt6vectorIPKNS_5StateESaIS5_EERKS2_IdSaIdEESt10shared_ptrINS_8ObserverEEii(ptr noundef nonnull align 8 dereferenceable(112) %8, ptr noundef nonnull align 8 dereferenceable(24) %1, ptr noundef nonnull align 8 dereferenceable(24) %2, ptr noundef nonnull %7, i32 noundef %4, i32 noundef %5)
          to label %21 unwind label %60

21:                                               ; preds = %_ZNSt10shared_ptrIN10open_spiel8ObserverEEC2ERKS2_.exit
  store ptr %8, ptr %0, align 8
  %22 = getelementptr inbounds nuw i8, ptr %0, i64 8
  invoke void @_ZNSt14__shared_countILN9__gnu_cxx12_Lock_policyE2EEC2IPN10open_spiel10algorithms13InfostateTreeEEET_(ptr noundef nonnull align 8 dereferenceable(8) %22, ptr noundef nonnull %8)
          to label %_ZNSt10shared_ptrIN10open_spiel10algorithms13InfostateTreeEEC2IS2_vEEPT_.exit unwind label %58

_ZNSt10shared_ptrIN10open_spiel10algorithms13InfostateTreeEEC2IS2_vEEPT_.exit: ; preds = %21
  %23 = load ptr, ptr %10, align 8
  %.not.i.i.i6 = icmp eq ptr %23, null
  br i1 %.not.i.i.i6, label %_ZNSt10shared_ptrIN10open_spiel8ObserverEED2Ev.exit, label %24

24:                                               ; preds = %_ZNSt10shared_ptrIN10open_spiel10algorithms13InfostateTreeEEC2IS2_vEEPT_.exit
  %25 = getelementptr inbounds nuw i8, ptr %23, i64 8
  %26 = load atomic i64, ptr %25 acquire, align 8
  %27 = icmp eq i64 %26, 4294967297
  %28 = trunc i64 %26 to i32
  br i1 %27, label %29, label %34

29:                                               ; preds = %24
  store i32 0, ptr %25, align 8
  %30 = getelementptr inbounds nuw i8, ptr %23, i64 12
  store i32 0, ptr %30, align 4
  %31 = load ptr, ptr %23, align 8
  %32 = getelementptr inbounds nuw i8, ptr %31, i64 16
  %33 = load ptr, ptr %32, align 8
  call void %33(ptr noundef nonnull align 8 dereferenceable(16) %23) #22
  br label %_ZNSt16_Sp_counted_baseILN9__gnu_cxx12_Lock_policyE2EE24_M_release_last_use_coldEv.exit.sink.split.i.i.i.i

34:                                               ; preds = %24
  %35 = load i8, ptr @__libc_single_threaded, align 1
  %.not.i.i.i.i7 = icmp eq i8 %35, 0
  br i1 %.not.i.i.i.i7, label %38, label %36

36:                                               ; preds = %34
  %37 = add nsw i32 %28, -1
  store i32 %37, ptr %25, align 4
  br label %40

38:                                               ; preds = %34
  %39 = atomicrmw volatile add ptr %25, i32 -1 acq_rel, align 4
  br label %40

40:                                               ; preds = %38, %36
  %.0.i.i.i.i = phi i32 [ %28, %36 ], [ %39, %38 ]
  %41 = icmp eq i32 %.0.i.i.i.i, 1
  br i1 %41, label %42, label %_ZNSt10shared_ptrIN10open_spiel8ObserverEED2Ev.exit

42:                                               ; preds = %40
  %43 = load ptr, ptr %23, align 8
  %44 = getelementptr inbounds nuw i8, ptr %43, i64 16
  %45 = load ptr, ptr %44, align 8
  call void %45(ptr noundef nonnull align 8 dereferenceable(16) %23) #22
  %46 = getelementptr inbounds nuw i8, ptr %23, i64 12
  %47 = load i8, ptr @__libc_single_threaded, align 1
  %.not.i.i.i.i.i.i = icmp eq i8 %47, 0
  br i1 %.not.i.i.i.i.i.i, label %51, label %48

48:                                               ; preds = %42
  %49 = load i32, ptr %46, align 4
  %50 = add nsw i32 %49, -1
  store i32 %50, ptr %46, align 4
  br label %53

51:                                               ; preds = %42
  %52 = atomicrmw volatile add ptr %46, i32 -1 acq_rel, align 4
  br label %53

53:                                               ; preds = %51, %48
  %.0.i.i.i.i.i.i = phi i32 [ %49, %48 ], [ %52, %51 ]
  %54 = icmp eq i32 %.0.i.i.i.i.i.i, 1
  br i1 %54, label %_ZNSt16_Sp_counted_baseILN9__gnu_cxx12_Lock_policyE2EE24_M_release_last_use_coldEv.exit.sink.split.i.i.i.i, label %_ZNSt10shared_ptrIN10open_spiel8ObserverEED2Ev.exit

_ZNSt16_Sp_counted_baseILN9__gnu_cxx12_Lock_policyE2EE24_M_release_last_use_coldEv.exit.sink.split.i.i.i.i: ; preds = %53, %29
  %55 = load ptr, ptr %23, align 8
  %56 = getelementptr inbounds nuw i8, ptr %55, i64 24
  %57 = load ptr, ptr %56, align 8
  call void %57(ptr noundef nonnull align 8 dereferenceable(16) %23) #22
  br label %_ZNSt10shared_ptrIN10open_spiel8ObserverEED2Ev.exit

_ZNSt10shared_ptrIN10open_spiel8ObserverEED2Ev.exit: ; preds = %_ZNSt10shared_ptrIN10open_spiel10algorithms13InfostateTreeEEC2IS2_vEEPT_.exit, %40, %53, %_ZNSt16_Sp_counted_baseILN9__gnu_cxx12_Lock_policyE2EE24_M_release_last_use_coldEv.exit.sink.split.i.i.i.i
  ret void

58:                                               ; preds = %21
  %59 = landingpad { ptr, i32 }
          cleanup
  call void @_ZNSt10shared_ptrIN10open_spiel8ObserverEED2Ev(ptr noundef nonnull align 8 dereferenceable(16) %7) #22
  br label %62

60:                                               ; preds = %_ZNSt10shared_ptrIN10open_spiel8ObserverEEC2ERKS2_.exit
  %61 = landingpad { ptr, i32 }
          cleanup
  call void @_ZNSt10shared_ptrIN10open_spiel8ObserverEED2Ev(ptr noundef nonnull align 8 dereferenceable(16) %7) #22
  call void @_ZdlPvm(ptr noundef nonnull %8, i64 noundef 112) #23
  br label %62

62:                                               ; preds = %58, %60
  %63 = phi { ptr, i32 } [ %59, %58 ], [ %61, %60 ]
  resume { ptr, i32 } %63
}